
Allocating common symbols
Common symbol       size              file

thread_ready_list   0x10              build/thread.o
thread_all_list     0x10              build/thread.o
user_pool           0x10              build/memory.o
intr_name           0x84              build/interrupt.o
main_thread         0x4               build/thread.o
kernel_vaddr        0xc               build/memory.o
idt_table           0x84              build/interrupt.o
kernel_pool         0x10              build/memory.o

Discarded input sections

 .group         0x0000000000000000        0x8 build/main.o
 .note.GNU-stack
                0x0000000000000000        0x0 build/main.o
 .group         0x0000000000000000        0x8 build/init.o
 .text.__x86.get_pc_thunk.bx
                0x0000000000000000        0x4 build/init.o
 .note.GNU-stack
                0x0000000000000000        0x0 build/init.o
 .group         0x0000000000000000        0x8 build/interrupt.o
 .group         0x0000000000000000        0x8 build/interrupt.o
 .text.__x86.get_pc_thunk.bx
                0x0000000000000000        0x4 build/interrupt.o
 .note.GNU-stack
                0x0000000000000000        0x0 build/interrupt.o
 .group         0x0000000000000000        0x8 build/memory.o
 .group         0x0000000000000000        0x8 build/memory.o
 .text.__x86.get_pc_thunk.ax
                0x0000000000000000        0x4 build/memory.o
 .text.__x86.get_pc_thunk.bx
                0x0000000000000000        0x4 build/memory.o
 .note.GNU-stack
                0x0000000000000000        0x0 build/memory.o
 .group         0x0000000000000000        0x8 build/timer.o
 .group         0x0000000000000000        0x8 build/timer.o
 .text.__x86.get_pc_thunk.ax
                0x0000000000000000        0x4 build/timer.o
 .text.__x86.get_pc_thunk.bx
                0x0000000000000000        0x4 build/timer.o
 .note.GNU-stack
                0x0000000000000000        0x0 build/timer.o
 .group         0x0000000000000000        0x8 build/thread.o
 .group         0x0000000000000000        0x8 build/thread.o
 .group         0x0000000000000000        0x8 build/thread.o
 .text.__x86.get_pc_thunk.ax
                0x0000000000000000        0x4 build/thread.o
 .text.__x86.get_pc_thunk.bx
                0x0000000000000000        0x4 build/thread.o
 .note.GNU-stack
                0x0000000000000000        0x0 build/thread.o
 .group         0x0000000000000000        0x8 build/debug.o
 .text.__x86.get_pc_thunk.bx
                0x0000000000000000        0x4 build/debug.o
 .note.GNU-stack
                0x0000000000000000        0x0 build/debug.o
 .group         0x0000000000000000        0x8 build/bitmap.o
 .text.__x86.get_pc_thunk.ax
                0x0000000000000000        0x4 build/bitmap.o
 .note.GNU-stack
                0x0000000000000000        0x0 build/bitmap.o
 .group         0x0000000000000000        0x8 build/string.o
 .text.__x86.get_pc_thunk.ax
                0x0000000000000000        0x4 build/string.o
 .note.GNU-stack
                0x0000000000000000        0x0 build/string.o
 .group         0x0000000000000000        0x8 build/list.o
 .group         0x0000000000000000        0x8 build/list.o
 .text.__x86.get_pc_thunk.ax
                0x0000000000000000        0x4 build/list.o
 .text.__x86.get_pc_thunk.bx
                0x0000000000000000        0x4 build/list.o
 .note.GNU-stack
                0x0000000000000000        0x0 build/list.o

Memory Configuration

Name             Origin             Length             Attributes
*default*        0x0000000000000000 0xffffffffffffffff

Linker script and memory map

Address of section .text set to 0xc0001500
LOAD build/main.o
LOAD build/init.o
LOAD build/interrupt.o
LOAD build/memory.o
LOAD build/timer.o
LOAD build/thread.o
LOAD build/kernel.o
LOAD build/switch.o
LOAD build/print.o
LOAD build/debug.o
LOAD build/bitmap.o
LOAD build/string.o
LOAD build/list.o
                [!provide]                        PROVIDE (__executable_start = SEGMENT_START ("text-segment", 0x8048000))
                0x0000000008048094                . = (SEGMENT_START ("text-segment", 0x8048000) + SIZEOF_HEADERS)

.interp
 *(.interp)

.note.gnu.build-id
 *(.note.gnu.build-id)

.hash
 *(.hash)

.gnu.hash
 *(.gnu.hash)

.dynsym
 *(.dynsym)

.dynstr
 *(.dynstr)

.gnu.version
 *(.gnu.version)

.gnu.version_d
 *(.gnu.version_d)

.gnu.version_r
 *(.gnu.version_r)

.rel.dyn        0x0000000008048094        0x0
 *(.rel.init)
 *(.rel.text .rel.text.* .rel.gnu.linkonce.t.*)
 .rel.text      0x0000000008048094        0x0 build/main.o
 *(.rel.fini)
 *(.rel.rodata .rel.rodata.* .rel.gnu.linkonce.r.*)
 *(.rel.data.rel.ro .rel.data.rel.ro.* .rel.gnu.linkonce.d.rel.ro.*)
 *(.rel.data .rel.data.* .rel.gnu.linkonce.d.*)
 *(.rel.tdata .rel.tdata.* .rel.gnu.linkonce.td.*)
 *(.rel.tbss .rel.tbss.* .rel.gnu.linkonce.tb.*)
 *(.rel.ctors)
 *(.rel.dtors)
 *(.rel.got)
 .rel.got       0x0000000008048094        0x0 build/main.o
 *(.rel.bss .rel.bss.* .rel.gnu.linkonce.b.*)
 *(.rel.ifunc)

.rel.plt        0x0000000008048094        0x0
 *(.rel.plt)
                [!provide]                        PROVIDE (__rel_iplt_start = .)
 *(.rel.iplt)
 .rel.iplt      0x0000000008048094        0x0 build/main.o
                [!provide]                        PROVIDE (__rel_iplt_end = .)

.init
 *(SORT_NONE(.init))

.plt            0x0000000008048098        0x0
 *(.plt)
 *(.iplt)
 .iplt          0x0000000008048098        0x0 build/main.o

.plt.got
 *(.plt.got)

.plt.sec
 *(.plt.sec)

.text           0x00000000c0001500     0x210f
 *(.text.unlikely .text.*_unlikely .text.unlikely.*)
 *(.text.exit .text.exit.*)
 *(.text.startup .text.startup.*)
 *(.text.hot .text.hot.*)
 *(.text .stub .text.* .gnu.linkonce.t.*)
 .text          0x00000000c0001500       0x38 build/main.o
                0x00000000c0001500                main
 .text.__x86.get_pc_thunk.bx
                0x00000000c0001538        0x4 build/main.o
                0x00000000c0001538                __x86.get_pc_thunk.bx
 .text          0x00000000c000153c       0x39 build/init.o
                0x00000000c000153c                init_all
 .text          0x00000000c0001575      0x48b build/interrupt.o
                0x00000000c00018c0                idt_init
                0x00000000c0001928                intr_enable
                0x00000000c0001958                intr_disable
                0x00000000c0001988                intr_set_status
                0x00000000c00019b0                intr_get_status
                0x00000000c00019d7                register_handler
 .text.__x86.get_pc_thunk.ax
                0x00000000c0001a00        0x4 build/interrupt.o
                0x00000000c0001a00                __x86.get_pc_thunk.ax
 .text          0x00000000c0001a04      0x5de build/memory.o
                0x00000000c0001c29                mem_init
                0x00000000c0001c7d                pde_ptr
                0x00000000c0001c9a                pte_ptr
                0x00000000c0001eff                malloc_page
                0x00000000c0001f98                get_kernel_pages
 .text          0x00000000c0001fe2      0x1b6 build/timer.o
                0x00000000c0002130                timer_init
 .text          0x00000000c0002198      0x44f build/thread.o
                0x00000000c0002198                running_thread
                0x00000000c00021e3                thread_create
                0x00000000c0002267                init_thread
                0x00000000c000230c                thread_start
                0x00000000c00024ab                schedule
 .text.__x86.get_pc_thunk.dx
                0x00000000c00025e7        0x4 build/thread.o
                0x00000000c00025e7                __x86.get_pc_thunk.dx
 *fill*         0x00000000c00025eb        0x5 
 .text          0x00000000c00025f0      0x396 build/kernel.o
                0x00000000c00025f0                intr_exit
 *fill*         0x00000000c0002986        0xa 
 .text          0x00000000c0002990        0x8 build/switch.o
                0x00000000c0002990                switch_to
 *fill*         0x00000000c0002998        0x8 
 .text          0x00000000c00029a0      0x197 build/print.o
                0x00000000c00029a0                put_char
                0x00000000c0002a6f                put_str
                0x00000000c0002a8d                put_int32
                0x00000000c0002ae3                put_uint32_hex
 .text          0x00000000c0002b37       0xe0 build/debug.o
                0x00000000c0002b37                panic_spin
 .text          0x00000000c0002c17      0x27d build/bitmap.o
                0x00000000c0002c17                bitmap_init
                0x00000000c0002c4a                bitmap_scan_test
                0x00000000c0002c94                bitmap_scan
                0x00000000c0002ddd                bitmap_set
 .text          0x00000000c0002e94      0x4a6 build/string.o
                0x00000000c0002e94                memset
                0x00000000c0002efa                memcpy
                0x00000000c0002f6c                memcmp
                0x00000000c0003005                strcpy
                0x00000000c0003070                strcmp
                0x00000000c0003105                strcat
                0x00000000c0003185                strchr
                0x00000000c00031f3                strrchr
                0x00000000c0003267                strchrs
                0x00000000c00032d9                strlen
 .text          0x00000000c000333a      0x2d5 build/list.o
                0x00000000c000333a                list_init
                0x00000000c0003372                list_insert_before
                0x00000000c00033f0                list_push
                0x00000000c0003418                list_append
                0x00000000c0003440                list_remove
                0x00000000c00034bd                list_pop
                0x00000000c0003502                list_isEmpty
                0x00000000c0003525                list_len
                0x00000000c0003564                list_traversal
                0x00000000c00035ca                have_elem
 *(.gnu.warning)

.fini
 *(SORT_NONE(.fini))
                [!provide]                        PROVIDE (__etext = .)
                [!provide]                        PROVIDE (_etext = .)
                [!provide]                        PROVIDE (etext = .)

.rodata         0x00000000c0003610      0x728
 *(.rodata .rodata.* .gnu.linkonce.r.*)
 .rodata        0x00000000c0003610        0xd build/main.o
 .rodata        0x00000000c000361d        0xa build/init.o
 *fill*         0x00000000c0003627        0x1 
 .rodata        0x00000000c0003628      0x251 build/interrupt.o
 *fill*         0x00000000c0003879        0x3 
 .rodata        0x00000000c000387c      0x10f build/memory.o
 *fill*         0x00000000c000398b        0x1 
 .rodata        0x00000000c000398c       0x6b build/timer.o
 *fill*         0x00000000c00039f7        0x1 
 .rodata        0x00000000c00039f8      0x161 build/thread.o
 .rodata        0x00000000c0003b59       0x39 build/debug.o
 *fill*         0x00000000c0003b92        0x2 
 .rodata        0x00000000c0003b94       0x67 build/bitmap.o
 *fill*         0x00000000c0003bfb        0x1 
 .rodata        0x00000000c0003bfc       0xc3 build/string.o
 *fill*         0x00000000c0003cbf        0x1 
 .rodata        0x00000000c0003cc0       0x78 build/list.o

.rodata1
 *(.rodata1)

.eh_frame_hdr
 *(.eh_frame_hdr)
 *(.eh_frame_entry .eh_frame_entry.*)

.eh_frame       0x00000000c0003d38      0x854
 *(.eh_frame)
 .eh_frame      0x00000000c0003d38       0x54 build/main.o
 .eh_frame      0x00000000c0003d8c       0x24 build/init.o
                                         0x50 (size before relaxing)
 .eh_frame      0x00000000c0003db0      0x1ac build/interrupt.o
                                        0x1d8 (size before relaxing)
 .eh_frame      0x00000000c0003f5c      0x138 build/memory.o
                                        0x178 (size before relaxing)
 .eh_frame      0x00000000c0004094       0x94 build/timer.o
                                         0xd4 (size before relaxing)
 .eh_frame      0x00000000c0004128      0x108 build/thread.o
                                        0x148 (size before relaxing)
 .eh_frame      0x00000000c0004230       0x1c build/debug.o
                                         0x48 (size before relaxing)
 .eh_frame      0x00000000c000424c       0x90 build/bitmap.o
                                         0xbc (size before relaxing)
 .eh_frame      0x00000000c00042dc      0x168 build/string.o
                                        0x194 (size before relaxing)
 .eh_frame      0x00000000c0004444      0x148 build/list.o
                                        0x188 (size before relaxing)
 *(.eh_frame.*)

.gcc_except_table
 *(.gcc_except_table .gcc_except_table.*)

.gnu_extab
 *(.gnu_extab*)

.exception_ranges
 *(.exception_ranges .exception_ranges*)
                0x00000000c0006000                . = DATA_SEGMENT_ALIGN (CONSTANT (MAXPAGESIZE), CONSTANT (COMMONPAGESIZE))

.eh_frame
 *(.eh_frame)
 *(.eh_frame.*)

.gnu_extab
 *(.gnu_extab)

.gcc_except_table
 *(.gcc_except_table .gcc_except_table.*)

.exception_ranges
 *(.exception_ranges .exception_ranges*)

.tdata
 *(.tdata .tdata.* .gnu.linkonce.td.*)

.tbss
 *(.tbss .tbss.* .gnu.linkonce.tb.*)
 *(.tcommon)

.preinit_array  0x00000000c0006000        0x0
                [!provide]                        PROVIDE (__preinit_array_start = .)
 *(.preinit_array)
                [!provide]                        PROVIDE (__preinit_array_end = .)

.init_array     0x00000000c0006000        0x0
                [!provide]                        PROVIDE (__init_array_start = .)
 *(SORT_BY_INIT_PRIORITY(.init_array.*) SORT_BY_INIT_PRIORITY(.ctors.*))
 *(.init_array EXCLUDE_FILE(*crtend?.o *crtend.o *crtbegin?.o *crtbegin.o) .ctors)
                [!provide]                        PROVIDE (__init_array_end = .)

.fini_array     0x00000000c0006000        0x0
                [!provide]                        PROVIDE (__fini_array_start = .)
 *(SORT_BY_INIT_PRIORITY(.fini_array.*) SORT_BY_INIT_PRIORITY(.dtors.*))
 *(.fini_array EXCLUDE_FILE(*crtend?.o *crtend.o *crtbegin?.o *crtbegin.o) .dtors)
                [!provide]                        PROVIDE (__fini_array_end = .)

.ctors
 *crtbegin.o(.ctors)
 *crtbegin?.o(.ctors)
 *(EXCLUDE_FILE(*crtend?.o *crtend.o) .ctors)
 *(SORT_BY_NAME(.ctors.*))
 *(.ctors)

.dtors
 *crtbegin.o(.dtors)
 *crtbegin?.o(.dtors)
 *(EXCLUDE_FILE(*crtend?.o *crtend.o) .dtors)
 *(SORT_BY_NAME(.dtors.*))
 *(.dtors)

.jcr
 *(.jcr)

.data.rel.ro
 *(.data.rel.ro.local* .gnu.linkonce.d.rel.ro.local.*)
 *(.data.rel.ro .data.rel.ro.* .gnu.linkonce.d.rel.ro.*)

.dynamic
 *(.dynamic)

.got            0x00000000c0006000        0x0
 *(.got)
 .got           0x00000000c0006000        0x0 build/main.o
 *(.igot)
                0x00000000c0006ff4                . = DATA_SEGMENT_RELRO_END (., (SIZEOF (.got.plt) >= 0xc)?0xc:0x0)

.got.plt        0x00000000c0006000        0xc
 *(.got.plt)
 .got.plt       0x00000000c0006000        0xc build/main.o
                0x00000000c0006000                _GLOBAL_OFFSET_TABLE_
 *(.igot.plt)
 .igot.plt      0x00000000c000600c        0x0 build/main.o

.data           0x00000000c000600c       0x97
 *(.data .data.* .gnu.linkonce.d.*)
 .data          0x00000000c000600c        0x0 build/main.o
 .data          0x00000000c000600c        0x0 build/init.o
 .data          0x00000000c000600c        0x0 build/interrupt.o
 .data          0x00000000c000600c        0x0 build/memory.o
 .data          0x00000000c000600c        0x0 build/timer.o
 .data          0x00000000c000600c        0x0 build/thread.o
 .data          0x00000000c000600c       0x97 build/kernel.o
                0x00000000c000601f                intr_entry_table
 .data          0x00000000c00060a3        0x0 build/debug.o
 .data          0x00000000c00060a3        0x0 build/bitmap.o
 .data          0x00000000c00060a3        0x0 build/string.o
 .data          0x00000000c00060a3        0x0 build/list.o

.data1
 *(.data1)
                0x00000000c00060a3                _edata = .
                [!provide]                        PROVIDE (edata = .)
                0x00000000c00060a3                . = .
                0x00000000c00060a3                __bss_start = .

.bss            0x00000000c00060c0      0x294
 *(.dynbss)
 *(.bss .bss.* .gnu.linkonce.b.*)
 .bss           0x00000000c00060c0        0x0 build/main.o
 .bss           0x00000000c00060c0        0x0 build/init.o
 .bss           0x00000000c00060c0      0x108 build/interrupt.o
 .bss           0x00000000c00061c8        0x0 build/memory.o
 .bss           0x00000000c00061c8        0x4 build/timer.o
                0x00000000c00061c8                ticks
 .bss           0x00000000c00061cc        0x4 build/thread.o
 .bss           0x00000000c00061d0        0x0 build/debug.o
 .bss           0x00000000c00061d0        0x0 build/bitmap.o
 .bss           0x00000000c00061d0        0x0 build/string.o
 .bss           0x00000000c00061d0        0x0 build/list.o
 *(COMMON)
 *fill*         0x00000000c00061d0       0x10 
 COMMON         0x00000000c00061e0      0x124 build/interrupt.o
                0x00000000c00061e0                intr_name
                0x00000000c0006280                idt_table
 COMMON         0x00000000c0006304       0x2c build/memory.o
                0x00000000c0006304                user_pool
                0x00000000c0006314                kernel_vaddr
                0x00000000c0006320                kernel_pool
 COMMON         0x00000000c0006330       0x24 build/thread.o
                0x00000000c0006330                thread_ready_list
                0x00000000c0006340                thread_all_list
                0x00000000c0006350                main_thread
                0x00000000c0006354                . = ALIGN ((. != 0x0)?0x4:0x1)
                0x00000000c0006354                . = ALIGN (0x4)
                0x00000000c0006354                . = SEGMENT_START ("ldata-segment", .)
                0x00000000c0006354                . = ALIGN (0x4)
                0x00000000c0006354                _end = .
                [!provide]                        PROVIDE (end = .)
                0x00000000c0006354                . = DATA_SEGMENT_END (.)

.stab
 *(.stab)

.stabstr
 *(.stabstr)

.stab.excl
 *(.stab.excl)

.stab.exclstr
 *(.stab.exclstr)

.stab.index
 *(.stab.index)

.stab.indexstr
 *(.stab.indexstr)

.comment        0x0000000000000000       0x1d
 *(.comment)
 .comment       0x0000000000000000       0x1d build/main.o
                                         0x1e (size before relaxing)
 .comment       0x000000000000001d       0x1e build/init.o
 .comment       0x000000000000001d       0x1e build/interrupt.o
 .comment       0x000000000000001d       0x1e build/memory.o
 .comment       0x000000000000001d       0x1e build/timer.o
 .comment       0x000000000000001d       0x1e build/thread.o
 .comment       0x000000000000001d       0x1e build/debug.o
 .comment       0x000000000000001d       0x1e build/bitmap.o
 .comment       0x000000000000001d       0x1e build/string.o
 .comment       0x000000000000001d       0x1e build/list.o

.debug
 *(.debug)

.line
 *(.line)

.debug_srcinfo
 *(.debug_srcinfo)

.debug_sfnames
 *(.debug_sfnames)

.debug_aranges
 *(.debug_aranges)

.debug_pubnames
 *(.debug_pubnames)

.debug_info
 *(.debug_info .gnu.linkonce.wi.*)

.debug_abbrev
 *(.debug_abbrev)

.debug_line
 *(.debug_line .debug_line.* .debug_line_end)

.debug_frame
 *(.debug_frame)

.debug_str
 *(.debug_str)

.debug_loc
 *(.debug_loc)

.debug_macinfo
 *(.debug_macinfo)

.debug_weaknames
 *(.debug_weaknames)

.debug_funcnames
 *(.debug_funcnames)

.debug_typenames
 *(.debug_typenames)

.debug_varnames
 *(.debug_varnames)

.debug_pubtypes
 *(.debug_pubtypes)

.debug_ranges
 *(.debug_ranges)

.debug_macro
 *(.debug_macro)

.debug_addr
 *(.debug_addr)

.gnu.attributes
 *(.gnu.attributes)

/DISCARD/
 *(.note.GNU-stack)
 *(.gnu_debuglink)
 *(.gnu.lto_*)
OUTPUT(build/kernel.bin elf32-i386)
